; Function Attrs: mustprogress nounwind willreturn uwtable
define void @Dch_ClassesStop(ptr noundef captures(none) %0) local_unnamed_addr #6 {
  %2 = getelementptr inbounds nuw i8, ptr %0, i64 64
  %3 = load ptr, ptr %2, align 8, !tbaa !31
  %.not = icmp eq ptr %3, null
  br i1 %.not, label %8, label %4

4:                                                ; preds = %1
  %5 = getelementptr inbounds nuw i8, ptr %3, i64 8
  %6 = load ptr, ptr %5, align 8, !tbaa !29
  %.not.i = icmp eq ptr %6, null
  br i1 %.not.i, label %Vec_PtrFree.exit, label %7

7:                                                ; preds = %4
  tail call void @free(ptr noundef nonnull %6) #19
  br label %Vec_PtrFree.exit

Vec_PtrFree.exit:                                 ; preds = %4, %7
  tail call void @free(ptr noundef nonnull %3) #19
  br label %8

8:                                                ; preds = %Vec_PtrFree.exit, %1
  %9 = getelementptr inbounds nuw i8, ptr %0, i64 56
  %10 = load ptr, ptr %9, align 8, !tbaa !30
  %.not20 = icmp eq ptr %10, null
  br i1 %.not20, label %15, label %11

11:                                               ; preds = %8
  %12 = getelementptr inbounds nuw i8, ptr %10, i64 8
  %13 = load ptr, ptr %12, align 8, !tbaa !29
  %.not.i25 = icmp eq ptr %13, null
  br i1 %.not.i25, label %Vec_PtrFree.exit26, label %14

14:                                               ; preds = %11
  tail call void @free(ptr noundef nonnull %13) #19
  br label %Vec_PtrFree.exit26

Vec_PtrFree.exit26:                               ; preds = %11, %14
  tail call void @free(ptr noundef nonnull %10) #19
  br label %15

15:                                               ; preds = %Vec_PtrFree.exit26, %8
  %16 = getelementptr inbounds nuw i8, ptr %0, i64 8
  %17 = load ptr, ptr %16, align 8, !tbaa !26
  %.not21 = icmp eq ptr %17, null
  br i1 %.not21, label %19, label %18

18:                                               ; preds = %15
  tail call void @free(ptr noundef nonnull %17) #19
  store ptr null, ptr %16, align 8, !tbaa !26
  br label %19

19:                                               ; preds = %15, %18
  %20 = getelementptr inbounds nuw i8, ptr %0, i64 16
  %21 = load ptr, ptr %20, align 8, !tbaa !27
  %.not22 = icmp eq ptr %21, null
  br i1 %.not22, label %23, label %22

22:                                               ; preds = %19
  tail call void @free(ptr noundef nonnull %21) #19
  store ptr null, ptr %20, align 8, !tbaa !27
  br label %23

23:                                               ; preds = %19, %22
  %24 = getelementptr inbounds nuw i8, ptr %0, i64 40
  %25 = load ptr, ptr %24, align 8, !tbaa !36
  %.not23 = icmp eq ptr %25, null
  br i1 %.not23, label %27, label %26

26:                                               ; preds = %23
  tail call void @free(ptr noundef nonnull %25) #19
  br label %27

27:                                               ; preds = %23, %26
  tail call void @free(ptr noundef nonnull %0) #19
  ret void
}